; Function Attrs: mustprogress uwtable
define void @proj_context_set_file_finder(ptr noundef writeonly %0, ptr noundef %1, ptr noundef %2) local_unnamed_addr #0 {
  %.not = icmp eq ptr %0, null
  br i1 %.not, label %4, label %.thread

4:                                                ; preds = %3
  %5 = tail call noundef ptr @_Z18pj_get_default_ctxv()
  %.not7 = icmp eq ptr %5, null
  br i1 %.not7, label %8, label %.thread

.thread:                                          ; preds = %3, %4
  %.010 = phi ptr [ %5, %4 ], [ %0, %3 ]
  %6 = getelementptr inbounds nuw i8, ptr %.010, i64 152
  store ptr %1, ptr %6, align 8, !tbaa !157
  %7 = getelementptr inbounds nuw i8, ptr %.010, i64 160
  store ptr %2, ptr %7, align 8, !tbaa !158
  br label %8

8:                                                ; preds = %4, %.thread
  ret void
}